; ModuleID = '5/4.c'
source_filename = "5/4.c"
target datalayout = "e-m:e-p270:32:32-p271:32:32-p272:64:64-i64:64-f80:128-n8:16:32:64-S128"
target triple = "x86_64-pc-linux-gnu"

@.str = private unnamed_addr constant [10 x i8] c"%lf %s %s\00", align 1
@.str.1 = private unnamed_addr constant [6 x i8] c"error\00", align 1
@.str.2 = private unnamed_addr constant [4 x i8] c"yes\00", align 1
@.str.3 = private unnamed_addr constant [3 x i8] c"no\00", align 1

; Function Attrs: noinline nounwind uwtable
define dso_local i32 @main() #0 {
  %1 = alloca i32, align 4
  %2 = alloca [520 x i8], align 16
  %3 = alloca [520 x i8], align 16
  %4 = alloca double, align 8
  %5 = alloca double, align 8
  %6 = alloca i32, align 4
  %7 = alloca i32, align 4
  %8 = alloca i32, align 4
  store i32 0, i32* %1, align 4
  %9 = bitcast [520 x i8]* %2 to i8*
  call void @llvm.memset.p0i8.i64(i8* align 16 %9, i8 0, i64 520, i1 false)
  %10 = bitcast [520 x i8]* %3 to i8*
  call void @llvm.memset.p0i8.i64(i8* align 16 %10, i8 0, i64 520, i1 false)
  store i32 1, i32* %8, align 4
  %11 = getelementptr inbounds [520 x i8], [520 x i8]* %2, i64 0, i64 0
  %12 = getelementptr inbounds [520 x i8], [520 x i8]* %3, i64 0, i64 0
  %13 = call i32 (i8*, ...) @__isoc99_scanf(i8* getelementptr inbounds ([10 x i8], [10 x i8]* @.str, i64 0, i64 0), double* %4, i8* %11, i8* %12)
  %14 = getelementptr inbounds [520 x i8], [520 x i8]* %2, i64 0, i64 0
  %15 = call i64 @strlen(i8* %14) #4
  %16 = getelementptr inbounds [520 x i8], [520 x i8]* %3, i64 0, i64 0
  %17 = call i64 @strlen(i8* %16) #4
  %18 = icmp ne i64 %15, %17
  br i1 %18, label %19, label %21

19:                                               ; preds = %0
  %20 = call i32 (i8*, ...) @printf(i8* getelementptr inbounds ([6 x i8], [6 x i8]* @.str.1, i64 0, i64 0))
  br label %127

21:                                               ; preds = %0
  store i32 0, i32* %7, align 4
  store i32 0, i32* %6, align 4
  br label %22

22:                                               ; preds = %102, %21
  %23 = load i32, i32* %6, align 4
  %24 = sext i32 %23 to i64
  %25 = getelementptr inbounds [520 x i8], [520 x i8]* %2, i64 0, i64 0
  %26 = call i64 @strlen(i8* %25) #4
  %27 = icmp ult i64 %24, %26
  br i1 %27, label %28, label %105

28:                                               ; preds = %22
  %29 = load i32, i32* %6, align 4
  %30 = sext i32 %29 to i64
  %31 = getelementptr inbounds [520 x i8], [520 x i8]* %2, i64 0, i64 %30
  %32 = load i8, i8* %31, align 1
  %33 = sext i8 %32 to i32
  %34 = icmp ne i32 %33, 65
  br i1 %34, label %35, label %56

35:                                               ; preds = %28
  %36 = load i32, i32* %6, align 4
  %37 = sext i32 %36 to i64
  %38 = getelementptr inbounds [520 x i8], [520 x i8]* %2, i64 0, i64 %37
  %39 = load i8, i8* %38, align 1
  %40 = sext i8 %39 to i32
  %41 = icmp ne i32 %40, 84
  br i1 %41, label %42, label %56

42:                                               ; preds = %35
  %43 = load i32, i32* %6, align 4
  %44 = sext i32 %43 to i64
  %45 = getelementptr inbounds [520 x i8], [520 x i8]* %2, i64 0, i64 %44
  %46 = load i8, i8* %45, align 1
  %47 = sext i8 %46 to i32
  %48 = icmp ne i32 %47, 71
  br i1 %48, label %49, label %56

49:                                               ; preds = %42
  %50 = load i32, i32* %6, align 4
  %51 = sext i32 %50 to i64
  %52 = getelementptr inbounds [520 x i8], [520 x i8]* %2, i64 0, i64 %51
  %53 = load i8, i8* %52, align 1
  %54 = sext i8 %53 to i32
  %55 = icmp ne i32 %54, 67
  br i1 %55, label %84, label %56

56:                                               ; preds = %49, %42, %35, %28
  %57 = load i32, i32* %6, align 4
  %58 = sext i32 %57 to i64
  %59 = getelementptr inbounds [520 x i8], [520 x i8]* %3, i64 0, i64 %58
  %60 = load i8, i8* %59, align 1
  %61 = sext i8 %60 to i32
  %62 = icmp ne i32 %61, 65
  br i1 %62, label %63, label %85

63:                                               ; preds = %56
  %64 = load i32, i32* %6, align 4
  %65 = sext i32 %64 to i64
  %66 = getelementptr inbounds [520 x i8], [520 x i8]* %3, i64 0, i64 %65
  %67 = load i8, i8* %66, align 1
  %68 = sext i8 %67 to i32
  %69 = icmp ne i32 %68, 84
  br i1 %69, label %70, label %85

70:                                               ; preds = %63
  %71 = load i32, i32* %6, align 4
  %72 = sext i32 %71 to i64
  %73 = getelementptr inbounds [520 x i8], [520 x i8]* %3, i64 0, i64 %72
  %74 = load i8, i8* %73, align 1
  %75 = sext i8 %74 to i32
  %76 = icmp ne i32 %75, 71
  br i1 %76, label %77, label %85

77:                                               ; preds = %70
  %78 = load i32, i32* %6, align 4
  %79 = sext i32 %78 to i64
  %80 = getelementptr inbounds [520 x i8], [520 x i8]* %3, i64 0, i64 %79
  %81 = load i8, i8* %80, align 1
  %82 = sext i8 %81 to i32
  %83 = icmp ne i32 %82, 67
  br i1 %83, label %84, label %85

84:                                               ; preds = %77, %49
  store i32 0, i32* %8, align 4
  br label %105

85:                                               ; preds = %77, %70, %63, %56
  %86 = load i32, i32* %6, align 4
  %87 = sext i32 %86 to i64
  %88 = getelementptr inbounds [520 x i8], [520 x i8]* %2, i64 0, i64 %87
  %89 = load i8, i8* %88, align 1
  %90 = sext i8 %89 to i32
  %91 = load i32, i32* %6, align 4
  %92 = sext i32 %91 to i64
  %93 = getelementptr inbounds [520 x i8], [520 x i8]* %3, i64 0, i64 %92
  %94 = load i8, i8* %93, align 1
  %95 = sext i8 %94 to i32
  %96 = icmp eq i32 %90, %95
  br i1 %96, label %97, label %100

97:                                               ; preds = %85
  %98 = load i32, i32* %7, align 4
  %99 = add nsw i32 %98, 1
  store i32 %99, i32* %7, align 4
  br label %100

100:                                              ; preds = %97, %85
  br label %101

101:                                              ; preds = %100
  br label %102

102:                                              ; preds = %101
  %103 = load i32, i32* %6, align 4
  %104 = add nsw i32 %103, 1
  store i32 %104, i32* %6, align 4
  br label %22

105:                                              ; preds = %84, %22
  %106 = load i32, i32* %7, align 4
  %107 = sitofp i32 %106 to double
  %108 = fmul double 1.000000e+00, %107
  %109 = getelementptr inbounds [520 x i8], [520 x i8]* %2, i64 0, i64 0
  %110 = call i64 @strlen(i8* %109) #4
  %111 = uitofp i64 %110 to double
  %112 = fdiv double %108, %111
  store double %112, double* %5, align 8
  %113 = load i32, i32* %8, align 4
  %114 = icmp eq i32 %113, 0
  br i1 %114, label %115, label %117

115:                                              ; preds = %105
  %116 = call i32 (i8*, ...) @printf(i8* getelementptr inbounds ([6 x i8], [6 x i8]* @.str.1, i64 0, i64 0))
  br label %126

117:                                              ; preds = %105
  %118 = load double, double* %5, align 8
  %119 = load double, double* %4, align 8
  %120 = fcmp ogt double %118, %119
  br i1 %120, label %121, label %123

121:                                              ; preds = %117
  %122 = call i32 (i8*, ...) @printf(i8* getelementptr inbounds ([4 x i8], [4 x i8]* @.str.2, i64 0, i64 0))
  br label %125

123:                                              ; preds = %117
  %124 = call i32 (i8*, ...) @printf(i8* getelementptr inbounds ([3 x i8], [3 x i8]* @.str.3, i64 0, i64 0))
  br label %125

125:                                              ; preds = %123, %121
  br label %126

126:                                              ; preds = %125, %115
  br label %127

127:                                              ; preds = %126, %19
  ret i32 0
}

; Function Attrs: argmemonly nounwind willreturn
declare void @llvm.memset.p0i8.i64(i8* nocapture writeonly, i8, i64, i1 immarg) #1

declare dso_local i32 @__isoc99_scanf(i8*, ...) #2

; Function Attrs: nounwind readonly
declare dso_local i64 @strlen(i8*) #3

declare dso_local i32 @printf(i8*, ...) #2


!llvm.module.flags = !{!0}
!llvm.ident = !{!1}

!0 = !{i32 1, !"wchar_size", i32 4}
!1 = !{!"clang version 10.0.0-4ubuntu1 "}
