; ModuleID = 'source-C-CXX/4/4.c'
source_filename = "source-C-CXX/4/4.c"
target datalayout = "e-m:e-p270:32:32-p271:32:32-p272:64:64-i64:64-f80:128-n8:16:32:64-S128"
target triple = "x86_64-pc-linux-gnu"

@.str = private unnamed_addr constant [10 x i8] c"%lf %s %s\00", align 1
@.str.1 = private unnamed_addr constant [6 x i8] c"error\00", align 1
@.str.2 = private unnamed_addr constant [4 x i8] c"yes\00", align 1
@.str.3 = private unnamed_addr constant [3 x i8] c"no\00", align 1

; Function Attrs: nofree nounwind sspstrong uwtable
define dso_local i32 @main() local_unnamed_addr #0 {
  %1 = alloca [520 x i8], align 16
  %2 = alloca [520 x i8], align 16
  %3 = alloca double, align 8
  %4 = getelementptr inbounds [520 x i8], [520 x i8]* %1, i64 0, i64 0
  call void @llvm.lifetime.start.p0i8(i64 520, i8* nonnull %4) #5
  call void @llvm.memset.p0i8.i64(i8* noundef nonnull align 16 dereferenceable(520) %4, i8 0, i64 520, i1 false)
  %5 = getelementptr inbounds [520 x i8], [520 x i8]* %2, i64 0, i64 0
  call void @llvm.lifetime.start.p0i8(i64 520, i8* nonnull %5) #5
  call void @llvm.memset.p0i8.i64(i8* noundef nonnull align 16 dereferenceable(520) %5, i8 0, i64 520, i1 false)
  %6 = bitcast double* %3 to i8*
  call void @llvm.lifetime.start.p0i8(i64 8, i8* nonnull %6) #5
  %7 = call i32 (i8*, ...) @__isoc99_scanf(i8* getelementptr inbounds ([10 x i8], [10 x i8]* @.str, i64 0, i64 0), double* nonnull %3, i8* nonnull %4, i8* nonnull %5)
  %8 = call i64 @strlen(i8* noundef nonnull %4) #6
  %9 = call i64 @strlen(i8* noundef nonnull %5) #6
  %10 = icmp eq i64 %8, %9
  br i1 %10, label %11, label %36

11:                                               ; preds = %0
  %12 = icmp eq i64 %8, 0
  br i1 %12, label %29, label %13

13:                                               ; preds = %11, %21
  %14 = phi i64 [ %25, %21 ], [ 0, %11 ]
  %15 = phi i32 [ %24, %21 ], [ 0, %11 ]
  %16 = getelementptr inbounds [520 x i8], [520 x i8]* %1, i64 0, i64 %14
  %17 = load i8, i8* %16, align 1, !tbaa !5
  switch i8 %17, label %36 [
    i8 65, label %18
    i8 84, label %18
    i8 71, label %18
    i8 67, label %18
  ]

18:                                               ; preds = %13, %13, %13, %13
  %19 = getelementptr inbounds [520 x i8], [520 x i8]* %2, i64 0, i64 %14
  %20 = load i8, i8* %19, align 1, !tbaa !5
  switch i8 %20, label %36 [
    i8 65, label %21
    i8 84, label %21
    i8 71, label %21
    i8 67, label %21
  ]

21:                                               ; preds = %18, %18, %18, %18
  %22 = icmp eq i8 %17, %20
  %23 = zext i1 %22 to i32
  %24 = add nuw nsw i32 %15, %23
  %25 = add nuw i64 %14, 1
  %26 = icmp eq i64 %25, %8
  br i1 %26, label %27, label %13, !llvm.loop !8

27:                                               ; preds = %21
  %28 = sitofp i32 %24 to double
  br label %29

29:                                               ; preds = %27, %11
  %30 = phi double [ 0.000000e+00, %11 ], [ %28, %27 ]
  %31 = uitofp i64 %8 to double
  %32 = fdiv double %30, %31
  %33 = load double, double* %3, align 8, !tbaa !10
  %34 = fcmp ogt double %32, %33
  %35 = select i1 %34, i8* getelementptr inbounds ([4 x i8], [4 x i8]* @.str.2, i64 0, i64 0), i8* getelementptr inbounds ([3 x i8], [3 x i8]* @.str.3, i64 0, i64 0)
  br label %36

36:                                               ; preds = %13, %18, %29, %0
  %37 = phi i8* [ getelementptr inbounds ([6 x i8], [6 x i8]* @.str.1, i64 0, i64 0), %0 ], [ %35, %29 ], [ getelementptr inbounds ([6 x i8], [6 x i8]* @.str.1, i64 0, i64 0), %18 ], [ getelementptr inbounds ([6 x i8], [6 x i8]* @.str.1, i64 0, i64 0), %13 ]
  %38 = call i32 (i8*, ...) @printf(i8* nonnull dereferenceable(1) %37)
  call void @llvm.lifetime.end.p0i8(i64 8, i8* nonnull %6) #5
  call void @llvm.lifetime.end.p0i8(i64 520, i8* nonnull %5) #5
  call void @llvm.lifetime.end.p0i8(i64 520, i8* nonnull %4) #5
  ret i32 0
}

; Function Attrs: argmemonly mustprogress nofree nosync nounwind willreturn
declare void @llvm.lifetime.start.p0i8(i64 immarg, i8* nocapture) #1

; Function Attrs: argmemonly mustprogress nofree nounwind willreturn writeonly
declare void @llvm.memset.p0i8.i64(i8* nocapture writeonly, i8, i64, i1 immarg) #2

; Function Attrs: nofree nounwind
declare noundef i32 @__isoc99_scanf(i8* nocapture noundef readonly, ...) local_unnamed_addr #3

; Function Attrs: argmemonly mustprogress nofree nounwind readonly willreturn
declare i64 @strlen(i8* nocapture) local_unnamed_addr #4

; Function Attrs: nofree nounwind
declare noundef i32 @printf(i8* nocapture noundef readonly, ...) local_unnamed_addr #3

; Function Attrs: argmemonly mustprogress nofree nosync nounwind willreturn
declare void @llvm.lifetime.end.p0i8(i64 immarg, i8* nocapture) #1


!llvm.module.flags = !{!0, !1, !2, !3}
!llvm.ident = !{!4}

!0 = !{i32 1, !"wchar_size", i32 4}
!1 = !{i32 7, !"PIC Level", i32 2}
!2 = !{i32 7, !"PIE Level", i32 2}
!3 = !{i32 7, !"uwtable", i32 1}
!4 = !{!"clang version 13.0.0"}
!5 = !{!6, !6, i64 0}
!6 = !{!"omnipotent char", !7, i64 0}
!7 = !{!"Simple C/C++ TBAA"}
!8 = distinct !{!8, !9}
!9 = !{!"llvm.loop.mustprogress"}
!10 = !{!11, !11, i64 0}
!11 = !{!"double", !6, i64 0}
